; Function Attrs: mustprogress uwtable
define hidden void @_ZNK6google8protobuf8compiler4java36ImmutablePrimitiveFieldLiteGenerator17GenerateFieldInfoEPNS0_2io7PrinterEPSt6vectorItSaItEE(ptr noundef nonnull align 8 dereferenceable(72) %this, ptr noundef %printer, ptr noundef %output) unnamed_addr #3 align 2 {
entry:
  %descriptor_ = getelementptr inbounds i8, ptr %this, i64 8
  %0 = load ptr, ptr %descriptor_, align 8
  %number_.i = getelementptr inbounds i8, ptr %0, i64 4
  %1 = load i32, ptr %number_.i, align 4
  tail call void @_ZN6google8protobuf8compiler4java30WriteUInt32ToUtf16CharSequenceEjPSt6vectorItSaItEE(i32 noundef %1, ptr noundef %output)
  %2 = load ptr, ptr %descriptor_, align 8
  %call3 = tail call noundef i32 @_ZN6google8protobuf8compiler4java28GetExperimentalJavaFieldTypeEPKNS0_15FieldDescriptorE(ptr noundef %2)
  tail call void @_ZN6google8protobuf8compiler4java30WriteUInt32ToUtf16CharSequenceEjPSt6vectorItSaItEE(i32 noundef %call3, ptr noundef %output)
  %3 = load ptr, ptr %descriptor_, align 8
  %call.i = tail call noundef zeroext i1 @_ZN6google8protobuf8internal3cpp9HasHasbitEPKNS0_15FieldDescriptorE(ptr noundef %3)
  br i1 %call.i, label %if.then, label %if.end

if.then:                                          ; preds = %entry
  %messageBitIndex_ = getelementptr inbounds i8, ptr %this, i64 48
  %4 = load i32, ptr %messageBitIndex_, align 8
  tail call void @_ZN6google8protobuf8compiler4java30WriteUInt32ToUtf16CharSequenceEjPSt6vectorItSaItEE(i32 noundef %4, ptr noundef %output)
  br label %if.end

if.end:                                           ; preds = %if.then, %entry
  %variables_ = getelementptr inbounds i8, ptr %this, i64 16
  tail call void @_ZN6google8protobuf2io7Printer5PrintIN4absl12lts_2023080213flat_hash_mapISt17basic_string_viewIcSt11char_traitsIcEENSt7__cxx1112basic_stringIcS9_SaIcEEENS5_18container_internal10StringHashENSF_8StringEqESaISt4pairIKSA_SE_EEEEEEvRKT_SA_(ptr noundef nonnull align 8 dereferenceable(256) %printer, ptr noundef nonnull align 8 dereferenceable(32) %variables_, i64 11, ptr nonnull @.str.22)
  ret void
}